target datalayout = "e-m:e-p270:32:32-p271:32:32-p272:64:64-i64:64-i128:128-f80:128-n8:16:32:64-S128"
target triple = "x86_64-pc-linux-gnu"

%struct.anon.6 = type { ptr, ptr }

@.str.12 = private unnamed_addr constant [32 x i8] c"../openssl/test/property_test.c\00", align 1
@.str.16 = private unnamed_addr constant [2 x i8] c"0\00", align 1
@.str.262 = private unnamed_addr constant [54 x i8] c"pl = ossl_parse_query(NULL, to_string_tests[i].in, 1)\00", align 1
@.str.263 = private unnamed_addr constant [8 x i8] c"bufsize\00", align 1
@.str.264 = private unnamed_addr constant [4 x i8] c"buf\00", align 1
@.str.265 = private unnamed_addr constant [53 x i8] c"ossl_property_list_to_string(NULL, pl, buf, bufsize)\00", align 1
@.str.266 = private unnamed_addr constant [23 x i8] c"to_string_tests[i].out\00", align 1
@.str.267 = private unnamed_addr constant [35 x i8] c"strlen(to_string_tests[i].out) + 1\00", align 1

; Function Attrs: nounwind uwtable
define internal i32 @test_property_list_to_string(i32 noundef %0) #0 {
  %2 = alloca i32, align 4
  %3 = alloca ptr, align 8
  %4 = alloca i32, align 4
  %5 = alloca i64, align 8
  %6 = alloca ptr, align 8
  store i32 %0, ptr %2, align 4, !tbaa !9
  call void @llvm.lifetime.start.p0(i64 8, ptr %3) #6
  store ptr null, ptr %3, align 8, !tbaa !13
  call void @llvm.lifetime.start.p0(i64 4, ptr %4) #6
  store i32 0, ptr %4, align 4, !tbaa !9
  call void @llvm.lifetime.start.p0(i64 8, ptr %5) #6
  call void @llvm.lifetime.start.p0(i64 8, ptr %6) #6
  store ptr null, ptr %6, align 8, !tbaa !22
  %7 = load i32, ptr %2, align 4, !tbaa !9
  %8 = sext i32 %7 to i64
  %9 = getelementptr inbounds [20 x %struct.anon.6], ptr @to_string_tests, i64 0, i64 %8
  %10 = getelementptr inbounds nuw %struct.anon.6, ptr %9, i32 0, i32 0
  %11 = load ptr, ptr %10, align 16, !tbaa !52
  %12 = icmp ne ptr %11, null
  br i1 %12, label %13, label %23

13:                                               ; preds = %1
  %14 = load i32, ptr %2, align 4, !tbaa !9
  %15 = sext i32 %14 to i64
  %16 = getelementptr inbounds [20 x %struct.anon.6], ptr @to_string_tests, i64 0, i64 %15
  %17 = getelementptr inbounds nuw %struct.anon.6, ptr %16, i32 0, i32 0
  %18 = load ptr, ptr %17, align 16, !tbaa !52
  %19 = call ptr @ossl_parse_query(ptr noundef null, ptr noundef %18, i32 noundef 1)
  store ptr %19, ptr %3, align 8, !tbaa !13
  %20 = call i32 @test_ptr(ptr noundef @.str.12, i32 noundef 669, ptr noundef @.str.262, ptr noundef %19)
  %21 = icmp ne i32 %20, 0
  br i1 %21, label %23, label %22

22:                                               ; preds = %13
  br label %66

23:                                               ; preds = %13, %1
  %24 = load ptr, ptr %3, align 8, !tbaa !13
  %25 = call i64 @ossl_property_list_to_string(ptr noundef null, ptr noundef %24, ptr noundef null, i64 noundef 0)
  store i64 %25, ptr %5, align 8, !tbaa !28
  %26 = load i64, ptr %5, align 8, !tbaa !28
  %27 = call i32 @test_size_t_gt(ptr noundef @.str.12, i32 noundef 672, ptr noundef @.str.263, ptr noundef @.str.16, i64 noundef %26, i64 noundef 0)
  %28 = icmp ne i32 %27, 0
  br i1 %28, label %30, label %29

29:                                               ; preds = %23
  br label %66

30:                                               ; preds = %23
  %31 = load i64, ptr %5, align 8, !tbaa !28
  %32 = call noalias ptr @CRYPTO_malloc(i64 noundef %31, ptr noundef @.str.12, i32 noundef 674)
  store ptr %32, ptr %6, align 8, !tbaa !22
  %33 = load ptr, ptr %6, align 8, !tbaa !22
  %34 = call i32 @test_ptr(ptr noundef @.str.12, i32 noundef 675, ptr noundef @.str.264, ptr noundef %33)
  %35 = icmp ne i32 %34, 0
  br i1 %35, label %36, label %64

36:                                               ; preds = %30
  %37 = load ptr, ptr %3, align 8, !tbaa !13
  %38 = load ptr, ptr %6, align 8, !tbaa !22
  %39 = load i64, ptr %5, align 8, !tbaa !28
  %40 = call i64 @ossl_property_list_to_string(ptr noundef null, ptr noundef %37, ptr noundef %38, i64 noundef %39)
  %41 = load i64, ptr %5, align 8, !tbaa !28
  %42 = call i32 @test_size_t_eq(ptr noundef @.str.12, i32 noundef 678, ptr noundef @.str.265, ptr noundef @.str.263, i64 noundef %40, i64 noundef %41)
  %43 = icmp ne i32 %42, 0
  br i1 %43, label %44, label %64

44:                                               ; preds = %36
  %45 = load i32, ptr %2, align 4, !tbaa !9
  %46 = sext i32 %45 to i64
  %47 = getelementptr inbounds [20 x %struct.anon.6], ptr @to_string_tests, i64 0, i64 %46
  %48 = getelementptr inbounds nuw %struct.anon.6, ptr %47, i32 0, i32 1
  %49 = load ptr, ptr %48, align 8, !tbaa !54
  %50 = load ptr, ptr %6, align 8, !tbaa !22
  %51 = call i32 @test_str_eq(ptr noundef @.str.12, i32 noundef 679, ptr noundef @.str.266, ptr noundef @.str.264, ptr noundef %49, ptr noundef %50)
  %52 = icmp ne i32 %51, 0
  br i1 %52, label %53, label %64

53:                                               ; preds = %44
  %54 = load i64, ptr %5, align 8, !tbaa !28
  %55 = load i32, ptr %2, align 4, !tbaa !9
  %56 = sext i32 %55 to i64
  %57 = getelementptr inbounds [20 x %struct.anon.6], ptr @to_string_tests, i64 0, i64 %56
  %58 = getelementptr inbounds nuw %struct.anon.6, ptr %57, i32 0, i32 1
  %59 = load ptr, ptr %58, align 8, !tbaa !54
  %60 = call i64 @strlen(ptr noundef %59) #7
  %61 = add i64 %60, 1
  %62 = call i32 @test_size_t_eq(ptr noundef @.str.12, i32 noundef 680, ptr noundef @.str.263, ptr noundef @.str.267, i64 noundef %54, i64 noundef %61)
  %63 = icmp ne i32 %62, 0
  br i1 %63, label %65, label %64

64:                                               ; preds = %53, %44, %36, %30
  br label %66

65:                                               ; preds = %53
  store i32 1, ptr %4, align 4, !tbaa !9
  br label %66

66:                                               ; preds = %65, %64, %29, %22
  %67 = load ptr, ptr %6, align 8, !tbaa !22
  call void @CRYPTO_free(ptr noundef %67, ptr noundef @.str.12, i32 noundef 685)
  %68 = load ptr, ptr %3, align 8, !tbaa !13
  call void @ossl_property_free(ptr noundef %68)
  %69 = load i32, ptr %4, align 4, !tbaa !9
  call void @llvm.lifetime.end.p0(i64 8, ptr %6) #6
  call void @llvm.lifetime.end.p0(i64 8, ptr %5) #6
  call void @llvm.lifetime.end.p0(i64 4, ptr %4) #6
  call void @llvm.lifetime.end.p0(i64 8, ptr %3) #6
  ret i32 %69
}