; Function Attrs: nounwind uwtable
define internal range(i32 0, 2) i32 @test_property_list_to_string(i32 noundef %0) #0 {
  %2 = sext i32 %0 to i64
  %3 = getelementptr inbounds [20 x %struct.anon.6], ptr @to_string_tests, i64 0, i64 %2
  %4 = load ptr, ptr %3, align 16, !tbaa !44
  %.not = icmp eq ptr %4, null
  br i1 %.not, label %8, label %5

5:                                                ; preds = %1
  %6 = tail call ptr @ossl_parse_query(ptr noundef null, ptr noundef nonnull %4, i32 noundef 1) #6
  %7 = tail call i32 @test_ptr(ptr noundef nonnull @.str.12, i32 noundef 669, ptr noundef nonnull @.str.262, ptr noundef %6) #6
  %.not19 = icmp eq i32 %7, 0
  br i1 %.not19, label %25, label %8

8:                                                ; preds = %5, %1
  %.016 = phi ptr [ %6, %5 ], [ null, %1 ]
  %9 = tail call i64 @ossl_property_list_to_string(ptr noundef null, ptr noundef %.016, ptr noundef null, i64 noundef 0) #6
  %10 = tail call i32 @test_size_t_gt(ptr noundef nonnull @.str.12, i32 noundef 672, ptr noundef nonnull @.str.263, ptr noundef nonnull @.str.16, i64 noundef %9, i64 noundef 0) #6
  %.not20 = icmp eq i32 %10, 0
  br i1 %.not20, label %25, label %11

11:                                               ; preds = %8
  %12 = tail call noalias ptr @CRYPTO_malloc(i64 noundef %9, ptr noundef nonnull @.str.12, i32 noundef 674) #6
  %13 = tail call i32 @test_ptr(ptr noundef nonnull @.str.12, i32 noundef 675, ptr noundef nonnull @.str.264, ptr noundef %12) #6
  %.not21 = icmp eq i32 %13, 0
  br i1 %.not21, label %25, label %14

14:                                               ; preds = %11
  %15 = tail call i64 @ossl_property_list_to_string(ptr noundef null, ptr noundef %.016, ptr noundef %12, i64 noundef %9) #6
  %16 = tail call i32 @test_size_t_eq(ptr noundef nonnull @.str.12, i32 noundef 678, ptr noundef nonnull @.str.265, ptr noundef nonnull @.str.263, i64 noundef %15, i64 noundef %9) #6
  %.not22 = icmp eq i32 %16, 0
  br i1 %.not22, label %25, label %17

17:                                               ; preds = %14
  %18 = getelementptr inbounds nuw i8, ptr %3, i64 8
  %19 = load ptr, ptr %18, align 8, !tbaa !46
  %20 = tail call i32 @test_str_eq(ptr noundef nonnull @.str.12, i32 noundef 679, ptr noundef nonnull @.str.266, ptr noundef nonnull @.str.264, ptr noundef %19, ptr noundef %12) #6
  %.not23 = icmp eq i32 %20, 0
  br i1 %.not23, label %25, label %21

21:                                               ; preds = %17
  %22 = tail call i64 @strlen(ptr noundef nonnull dereferenceable(1) %19) #7
  %23 = add i64 %22, 1
  %24 = tail call i32 @test_size_t_eq(ptr noundef nonnull @.str.12, i32 noundef 680, ptr noundef nonnull @.str.263, ptr noundef nonnull @.str.267, i64 noundef %9, i64 noundef %23) #6
  %.not24 = icmp ne i32 %24, 0
  %spec.select = zext i1 %.not24 to i32
  br label %25

25:                                               ; preds = %21, %11, %14, %17, %8, %5
  %.017 = phi i32 [ 0, %17 ], [ 0, %14 ], [ 0, %11 ], [ 0, %8 ], [ 0, %5 ], [ %spec.select, %21 ]
  %.1 = phi ptr [ %.016, %17 ], [ %.016, %14 ], [ %.016, %11 ], [ %.016, %8 ], [ %6, %5 ], [ %.016, %21 ]
  %.0 = phi ptr [ %12, %17 ], [ %12, %14 ], [ %12, %11 ], [ null, %8 ], [ null, %5 ], [ %12, %21 ]
  tail call void @CRYPTO_free(ptr noundef %.0, ptr noundef nonnull @.str.12, i32 noundef 685) #6
  tail call void @ossl_property_free(ptr noundef %.1) #6
  ret i32 %.017
}